Certificate:
    Data:
        Version: 3 (0x2)
        Serial Number: 1 (0x1)
        Signature Algorithm: sha512WithRSAEncryption
        Issuer: O=DAOS, CN=DAOS CA
        Validity
            Not Before: Oct  2 23:00:16 2023 GMT
            Not After : Oct  1 23:00:16 2026 GMT
        Subject: O=DAOS, CN=server
        Subject Public Key Info:
            Public Key Algorithm: rsaEncryption
                Public-Key: (3072 bit)
                Modulus:
                    00:d1:c5:f4:b5:2b:ea:03:df:a6:0b:4d:6f:e7:38:
                    55:93:44:91:e5:e4:29:9a:e7:8c:40:35:85:70:85:
                    89:64:21:22:e0:03:09:8b:13:84:dd:27:f8:c6:20:
                    fd:a9:a1:f0:0a:c6:e6:ae:b2:f7:b3:63:05:94:03:
                    d0:98:b7:44:69:e9:33:7f:18:d2:ed:aa:b6:94:9d:
                    44:41:22:94:ba:5c:74:84:ac:f0:ed:f2:cc:a8:14:
                    61:9c:7f:e3:65:5d:df:37:af:ea:10:9f:f5:5c:1c:
                    9d:01:e7:79:d9:4b:30:66:eb:01:f1:d5:cc:d8:4c:
                    e0:31:84:db:51:a9:d9:51:f5:f2:7b:b9:6d:5f:ea:
                    7c:ee:68:a5:dd:26:89:45:76:e0:6b:d1:f9:bd:78:
                    a6:0f:3c:2c:ee:74:98:82:e8:2f:51:fc:82:97:9d:
                    e4:d1:ba:fc:61:ac:7c:c8:ee:f8:c7:91:78:76:24:
                    18:65:c2:af:e2:ab:aa:df:40:5f:07:47:b6:72:3d:
                    e4:2f:80:97:74:6a:49:20:0d:fe:8a:e6:e1:53:a3:
                    a9:10:8f:45:1d:7a:79:91:28:5c:75:12:3a:bf:96:
                    97:b0:7c:8c:27:6d:9b:50:82:7b:b3:84:ac:58:40:
                    19:db:f8:83:fb:be:a7:85:5c:53:18:db:40:ab:1b:
                    c1:01:96:4f:d2:34:8c:f9:12:77:fb:0f:c8:77:ac:
                    e0:21:04:c8:1b:c3:6b:68:8f:b8:3f:15:87:c0:00:
                    d6:91:59:8c:a9:54:0a:b3:2f:a0:34:1a:4c:a3:74:
                    08:d7:62:90:83:0c:e4:d3:87:6d:02:aa:8b:7f:b5:
                    5d:55:ce:cb:e8:b0:a6:a6:f3:8c:74:7a:fd:28:e1:
                    9c:52:a9:e8:be:fa:7c:cd:67:f3:b6:5e:3b:af:d9:
                    22:fe:7a:41:f9:f1:fd:13:bb:44:52:13:c9:cc:55:
                    b2:c6:b8:39:ed:3d:21:d6:a7:37:15:bf:9c:e7:67:
                    a0:33:fe:fa:15:c4:b1:67:bb:9f
                Exponent: 65537 (0x10001)
        X509v3 extensions:
            X509v3 Key Usage: critical
                Digital Signature, Key Encipherment
            X509v3 Extended Key Usage: 
                TLS Web Server Authentication, TLS Web Client Authentication
            X509v3 Subject Key Identifier: 
                19:6D:9C:5D:67:5F:54:26:23:45:B9:6C:0B:8A:AA:28:BC:74:59:8D
            X509v3 Authority Key Identifier: 
                3F:9D:12:D5:EB:91:77:C9:A4:5C:AB:C2:68:C1:AC:0B:C5:93:3C:0A
    Signature Algorithm: sha512WithRSAEncryption
    Signature Value:
        84:a7:56:50:69:0c:99:d7:7d:11:ab:94:20:7f:d4:18:b6:9d:
        91:7b:9e:64:9c:28:69:88:7d:60:60:5e:5e:88:12:4c:32:38:
        0d:01:ad:41:a9:ed:93:37:9a:c5:3e:dc:e5:fc:78:e6:09:d6:
        ba:17:16:ad:6d:48:7b:c0:09:38:65:a5:d6:64:b5:7e:42:61:
        18:df:db:1c:30:ed:38:c8:28:6a:45:50:1c:c2:35:33:32:47:
        73:73:3e:9e:38:75:0e:5f:de:93:62:07:95:a0:d2:93:6a:a2:
        7c:df:50:8f:52:b2:5e:d3:cb:0f:c7:66:5f:b4:db:eb:9f:0f:
        cf:95:ce:1e:de:80:3e:ee:bc:86:17:6d:b8:f8:df:98:16:c5:
        09:2d:b2:a8:0a:8d:c0:60:88:85:2f:d6:e4:76:4e:33:69:0c:
        54:61:48:4b:a3:26:81:d0:06:15:a1:94:b2:b9:d1:24:f8:0e:
        68:ba:f4:93:eb:4f:45:d6:03:f2:b9:b9:fb:fc:15:1e:f8:4e:
        9e:06:df:4c:4e:c9:c0:65:4f:ec:72:87:63:4f:dc:48:b8:3f:
        6d:8b:bf:03:e6:cf:ce:c8:77:92:e1:4b:35:b7:a9:62:14:2e:
        52:d4:56:46:f6:44:45:8d:50:13:2b:38:ec:ad:b3:7e:e4:0a:
        f9:13:f5:60:14:bc:a0:91:54:3f:3d:5d:a5:44:d4:e8:92:19:
        66:82:49:71:92:f1:e3:ad:b5:0e:b5:8f:cd:86:c3:0b:a4:61:
        c0:d4:f8:a9:58:e7:1c:9a:0b:c1:6c:68:ca:6c:88:65:62:98:
        b9:2e:0f:cf:94:63:06:45:e9:08:7c:80:77:68:e6:6a:ea:1e:
        8e:d3:d2:03:6c:ac:43:21:b8:91:91:e2:87:c4:13:92:96:10:
        40:01:9e:ae:c7:08:cb:4b:1b:28:ec:13:7c:d5:cd:42:e9:12:
        ac:fa:e2:60:9e:8a:ae:5f:f9:27:60:18:5c:7a:51:04:ce:65:
        67:ea:f6:9f:b8:33
-----BEGIN CERTIFICATE-----
MIIELTCCApWgAwIBAgIBATANBgkqhkiG9w0BAQ0FADAhMQ0wCwYDVQQKDAREQU9T
MRAwDgYDVQQDDAdEQU9TIENBMB4XDTIzMTAwMjIzMDAxNloXDTI2MTAwMTIzMDAx
NlowIDENMAsGA1UECgwEREFPUzEPMA0GA1UEAwwGc2VydmVyMIIBojANBgkqhkiG
9w0BAQEFAAOCAY8AMIIBigKCAYEA0cX0tSvqA9+mC01v5zhVk0SR5eQpmueMQDWF
cIWJZCEi4AMJixOE3Sf4xiD9qaHwCsbmrrL3s2MFlAPQmLdEaekzfxjS7aq2lJ1E
QSKUulx0hKzw7fLMqBRhnH/jZV3fN6/qEJ/1XBydAed52UswZusB8dXM2EzgMYTb
UanZUfXye7ltX+p87mil3SaJRXbga9H5vXimDzws7nSYgugvUfyCl53k0br8Yax8
yO74x5F4diQYZcKv4quq30BfB0e2cj3kL4CXdGpJIA3+iubhU6OpEI9FHXp5kShc
dRI6v5aXsHyMJ22bUIJ7s4SsWEAZ2/iD+76nhVxTGNtAqxvBAZZP0jSM+RJ3+w/I
d6zgIQTIG8NraI+4PxWHwADWkVmMqVQKsy+gNBpMo3QI12KQgwzk04dtAqqLf7Vd
Vc7L6LCmpvOMdHr9KOGcUqnovvp8zWfztl47r9ki/npB+fH9E7tEUhPJzFWyxrg5
7T0h1qc3Fb+c52egM/76FcSxZ7ufAgMBAAGjcTBvMA4GA1UdDwEB/wQEAwIFoDAd
BgNVHSUEFjAUBggrBgEFBQcDAQYIKwYBBQUHAwIwHQYDVR0OBBYEFBltnF1nX1Qm
I0W5bAuKqii8dFmNMB8GA1UdIwQYMBaAFD+dEtXrkXfJpFyrwmjBrAvFkzwKMA0G
CSqGSIb3DQEBDQUAA4IBgQCEp1ZQaQyZ130Rq5Qgf9QYtp2Re55knChpiH1gYF5e
iBJMMjgNAa1Bqe2TN5rFPtzl/HjmCda6FxatbUh7wAk4ZaXWZLV+QmEY39scMO04
yChqRVAcwjUzMkdzcz6eOHUOX96TYgeVoNKTaqJ831CPUrJe08sPx2ZftNvrnw/P
lc4e3oA+7ryGF224+N+YFsUJLbKoCo3AYIiFL9bkdk4zaQxUYUhLoyaB0AYVoZSy
udEk+A5ouvST609F1gPyubn7/BUe+E6eBt9MTsnAZU/scodjT9xIuD9ti78D5s/O
yHeS4Us1t6liFC5S1FZG9kRFjVATKzjsrbN+5Ar5E/VgFLygkVQ/PV2lRNTokhlm
gklxkvHjrbUOtY/NhsMLpGHA1PipWOccmgvBbGjKbIhlYpi5Lg/PlGMGRekIfIB3
aOZq6h6O09IDbKxDIbiRkeKHxBOSlhBAAZ6uxwjLSxso7BN81c1C6RKs+uJgnoqu
X/knYBhcelEEzmVn6vafuDM=
-----END CERTIFICATE-----
