Certificate:
    Data:
        Version: 3 (0x2)
        Serial Number: 2 (0x2)
        Signature Algorithm: sha512WithRSAEncryption
        Issuer: O=DAOS, CN=DAOS CA
        Validity
            Not Before: Oct  2 23:00:16 2023 GMT
            Not After : Oct  1 23:00:16 2026 GMT
        Subject: O=DAOS, CN=agent
        Subject Public Key Info:
            Public Key Algorithm: rsaEncryption
                Public-Key: (3072 bit)
                Modulus:
                    00:e3:76:3d:6f:ef:d6:25:59:05:75:80:16:31:b9:
                    e0:c1:ed:e6:13:03:47:34:94:67:08:60:1a:de:ec:
                    81:6f:33:42:71:11:61:42:56:48:17:1e:c8:2e:e6:
                    55:fa:78:7a:59:c6:8d:88:98:6f:4a:3d:a3:66:7b:
                    c9:61:4f:6f:90:2e:5d:84:9b:51:83:f8:11:b2:58:
                    13:3b:74:42:d8:fb:20:79:78:40:3e:5b:22:62:fc:
                    c7:07:af:f7:15:9c:de:93:5b:b4:6e:04:87:ec:c4:
                    ee:68:e4:fb:cc:46:ef:bc:f6:a2:03:f0:5d:45:f9:
                    a8:e2:c1:8a:70:59:74:bd:96:7c:e3:30:58:0e:e8:
                    82:09:ae:c2:2d:15:21:fa:2f:30:71:04:8c:6a:d6:
                    71:bb:ba:f0:5a:ca:a4:f8:ff:bb:89:ec:16:d3:11:
                    8d:e1:87:10:bc:b9:5c:e4:83:cc:68:72:a0:f8:15:
                    d5:c0:fb:77:70:29:59:6a:ae:e8:b4:b2:ca:7a:1b:
                    0a:c6:21:06:60:08:76:a6:8e:12:e2:a3:4c:59:78:
                    00:d1:ee:d8:c1:b4:4c:56:4b:d7:d2:ee:98:10:c0:
                    96:85:0c:fd:69:b8:eb:6b:50:6e:f5:28:20:59:04:
                    9f:a0:5a:f7:24:43:83:a8:99:1a:87:c3:fa:e2:ae:
                    1b:5c:53:4e:ce:5d:cc:78:6f:0f:59:e6:71:db:3c:
                    77:21:a5:41:4d:4a:ba:4a:bc:9c:49:5d:4b:97:33:
                    38:ba:ef:19:10:69:f8:67:a7:7f:95:15:78:f8:a2:
                    96:94:71:38:99:2d:49:89:4d:c0:bc:3d:01:35:5c:
                    b0:07:11:62:b4:2d:6f:07:76:91:40:33:02:1c:4c:
                    8b:93:7f:0f:d3:b8:c5:66:c3:6c:40:d9:01:b3:62:
                    43:cf:85:58:1e:84:57:95:a1:37:af:31:74:2a:d5:
                    49:a3:fd:3b:2a:cc:78:60:6d:22:a7:36:b6:fe:93:
                    a9:40:1e:50:cb:ec:1b:24:1a:9b
                Exponent: 65537 (0x10001)
        X509v3 extensions:
            X509v3 Key Usage: critical
                Digital Signature, Key Encipherment
            X509v3 Extended Key Usage: 
                TLS Web Client Authentication
            X509v3 Subject Key Identifier: 
                27:B6:B0:FF:43:0E:09:86:D5:0F:99:89:D9:03:0B:7E:AF:86:21:5F
            X509v3 Authority Key Identifier: 
                3F:9D:12:D5:EB:91:77:C9:A4:5C:AB:C2:68:C1:AC:0B:C5:93:3C:0A
    Signature Algorithm: sha512WithRSAEncryption
    Signature Value:
        82:40:58:af:27:60:f6:94:0a:8e:0d:29:50:72:24:47:7a:04:
        d7:15:48:46:1d:d6:bb:41:d6:76:9a:61:65:8b:80:21:05:7e:
        6f:3a:85:1e:8a:1d:f9:ad:7a:e3:70:03:ec:37:e7:d2:7b:a1:
        76:fd:a0:5d:ba:98:c7:ad:36:fd:a3:36:84:e6:8a:78:91:b1:
        06:52:29:a6:b9:80:94:2b:0d:04:1e:1f:62:10:d5:fd:f4:51:
        80:41:ef:9c:49:74:ab:b7:eb:8b:57:94:d2:f7:9b:57:48:96:
        bf:7e:76:2f:ab:50:f3:31:4a:91:89:2e:0a:90:28:93:28:d2:
        e2:dc:a5:41:bb:cd:df:84:22:16:c9:20:e8:75:30:44:d1:29:
        77:af:52:77:f3:20:3b:66:fe:b7:e2:94:a6:95:9f:72:07:46:
        1f:ff:87:e0:cd:31:2b:a1:00:72:45:a5:54:c9:f1:85:ee:dc:
        4a:39:03:30:b6:38:5b:94:73:31:48:fe:50:ff:10:66:a0:e8:
        ef:40:d4:16:49:7f:30:2f:0b:61:5f:59:75:b9:7f:e5:0d:14:
        87:90:49:e5:ef:a8:40:ee:1d:3c:2b:42:8a:4e:ca:1a:ed:69:
        9f:ed:58:6c:5e:6d:97:91:f8:42:25:19:18:e3:d0:19:c8:06:
        ae:f7:0c:b0:78:0b:3f:3c:6f:14:53:3f:87:2e:5d:09:27:4e:
        80:4d:e8:60:b5:02:06:ef:b7:20:1f:5e:21:41:f0:93:75:f1:
        24:eb:6a:0a:ab:c8:8b:db:d4:ea:dd:2b:a4:30:0b:b7:8e:9b:
        74:0c:df:e6:2f:e6:3c:ef:e9:41:f1:2b:6e:b2:d8:d3:6e:24:
        20:4d:b4:63:12:b9:72:96:c4:f0:96:70:6a:74:cc:70:00:12:
        23:a2:fe:0a:e4:e0:8d:cd:e4:21:56:aa:10:80:11:bd:d0:0a:
        26:c5:0d:ba:4a:52:0e:df:e4:18:0e:7d:46:93:bc:b9:3c:dd:
        e0:9f:77:72:44:77
-----BEGIN CERTIFICATE-----
MIIEIjCCAoqgAwIBAgIBAjANBgkqhkiG9w0BAQ0FADAhMQ0wCwYDVQQKDAREQU9T
MRAwDgYDVQQDDAdEQU9TIENBMB4XDTIzMTAwMjIzMDAxNloXDTI2MTAwMTIzMDAx
NlowHzENMAsGA1UECgwEREFPUzEOMAwGA1UEAwwFYWdlbnQwggGiMA0GCSqGSIb3
DQEBAQUAA4IBjwAwggGKAoIBgQDjdj1v79YlWQV1gBYxueDB7eYTA0c0lGcIYBre
7IFvM0JxEWFCVkgXHsgu5lX6eHpZxo2ImG9KPaNme8lhT2+QLl2Em1GD+BGyWBM7
dELY+yB5eEA+WyJi/McHr/cVnN6TW7RuBIfsxO5o5PvMRu+89qID8F1F+ajiwYpw
WXS9lnzjMFgO6IIJrsItFSH6LzBxBIxq1nG7uvBayqT4/7uJ7BbTEY3hhxC8uVzk
g8xocqD4FdXA+3dwKVlqrui0ssp6GwrGIQZgCHamjhLio0xZeADR7tjBtExWS9fS
7pgQwJaFDP1puOtrUG71KCBZBJ+gWvckQ4OomRqHw/rirhtcU07OXcx4bw9Z5nHb
PHchpUFNSrpKvJxJXUuXMzi67xkQafhnp3+VFXj4opaUcTiZLUmJTcC8PQE1XLAH
EWK0LW8HdpFAMwIcTIuTfw/TuMVmw2xA2QGzYkPPhVgehFeVoTevMXQq1Umj/Tsq
zHhgbSKnNrb+k6lAHlDL7BskGpsCAwEAAaNnMGUwDgYDVR0PAQH/BAQDAgWgMBMG
A1UdJQQMMAoGCCsGAQUFBwMCMB0GA1UdDgQWBBQntrD/Qw4JhtUPmYnZAwt+r4Yh
XzAfBgNVHSMEGDAWgBQ/nRLV65F3yaRcq8JowawLxZM8CjANBgkqhkiG9w0BAQ0F
AAOCAYEAgkBYrydg9pQKjg0pUHIkR3oE1xVIRh3Wu0HWdpphZYuAIQV+bzqFHood
+a1643AD7Dfn0nuhdv2gXbqYx602/aM2hOaKeJGxBlIpprmAlCsNBB4fYhDV/fRR
gEHvnEl0q7fri1eU0vebV0iWv352L6tQ8zFKkYkuCpAokyjS4tylQbvN34QiFskg
6HUwRNEpd69Sd/MgO2b+t+KUppWfcgdGH/+H4M0xK6EAckWlVMnxhe7cSjkDMLY4
W5RzMUj+UP8QZqDo70DUFkl/MC8LYV9Zdbl/5Q0Uh5BJ5e+oQO4dPCtCik7KGu1p
n+1YbF5tl5H4QiUZGOPQGcgGrvcMsHgLPzxvFFM/hy5dCSdOgE3oYLUCBu+3IB9e
IUHwk3XxJOtqCqvIi9vU6t0rpDALt46bdAzf5i/mPO/pQfErbrLY024kIE20YxK5
cpbE8JZwanTMcAASI6L+CuTgjc3kIVaqEIARvdAKJsUNukpSDt/kGA59RpO8uTzd
4J93ckR3
-----END CERTIFICATE-----
